; Function Attrs: nounwind uwtable
define dso_local i32 @replicationCountAcksByOffset(i64 noundef %offset) local_unnamed_addr #0 {
entry:
  %li = alloca %struct.listIter, align 8
  %0 = load ptr, ptr getelementptr inbounds (%struct.redisServer, ptr @server, i64 0, i32 59), align 8
  call void @listRewind(ptr noundef %0, ptr noundef nonnull %li) #21
  br label %while.cond.outer

while.cond.outer:                                 ; preds = %if.end, %entry
  %count.0.ph = phi i32 [ %spec.select, %if.end ], [ 0, %entry ]
  br label %while.cond

while.cond:                                       ; preds = %while.cond.outer, %while.body
  %call = call ptr @listNext(ptr noundef nonnull %li) #21
  %tobool.not = icmp eq ptr %call, null
  br i1 %tobool.not, label %while.end, label %while.body

while.body:                                       ; preds = %while.cond
  %value = getelementptr inbounds i8, ptr %call, i64 16
  %1 = load ptr, ptr %value, align 8
  %replstate = getelementptr inbounds i8, ptr %1, i64 260
  %2 = load i32, ptr %replstate, align 4
  %cmp.not = icmp eq i32 %2, 9
  br i1 %cmp.not, label %if.end, label %while.cond, !llvm.loop !35

if.end:                                           ; preds = %while.body
  %repl_ack_off = getelementptr inbounds i8, ptr %1, i64 320
  %3 = load i64, ptr %repl_ack_off, align 8
  %cmp1.not = icmp sge i64 %3, %offset
  %inc = zext i1 %cmp1.not to i32
  %spec.select = add nuw nsw i32 %count.0.ph, %inc
  br label %while.cond.outer, !llvm.loop !35

while.end:                                        ; preds = %while.cond
  ret i32 %count.0.ph
}